; Function Attrs: nofree norecurse nosync nounwind memory(argmem: read) uwtable
define i32 @Gia_ManTreeCountNodes(ptr noundef readonly captures(none) %0) local_unnamed_addr #6 {
  %2 = getelementptr inbounds nuw i8, ptr %0, i64 200
  br label %3

3:                                                ; preds = %1, %3
  %indvars.iv = phi i64 [ 0, %1 ], [ %indvars.iv.next, %3 ]
  %.07 = phi i32 [ 0, %1 ], [ %6, %3 ]
  %4 = getelementptr inbounds nuw [16 x i32], ptr %2, i64 0, i64 %indvars.iv
  %5 = load i32, ptr %4, align 4, !tbaa !4
  %6 = add nsw i32 %5, %.07
  %indvars.iv.next = add nuw nsw i64 %indvars.iv, 1
  %exitcond.not = icmp eq i64 %indvars.iv.next, 16
  br i1 %exitcond.not, label %7, label %3, !llvm.loop !27

7:                                                ; preds = %3
  ret i32 %6
}